(lp0
(lp1
F0.0
aF0.0
aa(lp2
F10.0
aF79.36507936507937
aa(lp3
F20.0
aF170.06802721088434
aa(lp4
F30.0
aF249.4331065759637
aa(lp5
F40.0
aF340.1360544217687
aa(lp6
F50.0
aF419.5011337868481
aa(lp7
F60.0
aF498.8662131519274
aa(lp8
F70.0
aF578.2312925170068
aa(lp9
F80.0
aF657.5963718820861
aa(lp10
F90.0
aF714.2857142857142
aa(lp11
F100.0
aF748.2993197278911
aa(lp12
F110.0
aF770.9750566893424
aa(lp13
F120.0
aF453.5147392290249
aa(lp14
F130.0
aF408.16326530612247
aa(lp15
F140.0
aF340.1360544217687
aa(lp16
F150.0
aF260.77097505668934
aa(lp17
F160.0
aF181.40589569160997
aa(lp18
F170.0
aF90.70294784580499
aa(lp19
F180.0
aF0.0
aa.