(lp0
(lp1
F0.0
aF0.8077216046725186
aF2.800363963571218
aa(lp2
F10.0
aF1.7201450312720703
aF4.797721472672048
aa(lp3
F20.0
aF3.293943306016735
aF7.753409333020325
aa(lp4
F30.0
aF4.684618661733103
aF10.273030087556192
aa(lp5
F40.0
aF6.040006063022361
aF10.504243445087063
aa(lp6
F50.0
aF7.344101464954675
aF13.172972756278723
aa(lp7
F60.0
aF7.98771839997727
aF16.603964289153033
aa(lp8
F70.0
aF6.602408278555692
aF19.163447724166318
aa(lp9
F80.0
aF5.04377090615345
aF20.317008387008983
aa(lp10
F90.0
aF4.699308396360978
aF19.19465331596824
aa(lp11
F100.0
aF5.684943068608006
aF19.2475092679184
aa(lp12
F110.0
aF8.298304488824742
aF20.108779707834113
aa(lp13
F120.0
aF10.086697385080004
aF17.114903331631517
aa(lp14
F130.0
aF8.245526421886922
aF12.684675219653311
aa(lp15
F140.0
aF6.227450280397608
aF7.614573843619376
aa(lp16
F150.0
aF4.539196165749521
aF5.030744861380856
aa(lp17
F160.0
aF3.0550136090394178
aF4.8978786034143305
aa(lp18
F170.0
aF1.5725076522592047
aF6.76633301953413
aa(lp19
F180.0
aF0.8356315639605358
aF6.733027035102098
aa.